; Function Attrs: mustprogress nounwind uwtable
define internal void @_ZNSt19_Sp_counted_deleterIPN10open_spiel12_GLOBAL__N_117NoPrivateObserverESt14default_deleteIS2_ESaIvELN9__gnu_cxx12_Lock_policyE2EE10_M_disposeEv(ptr noundef nonnull readonly align 8 captures(none) dereferenceable(24) %0) unnamed_addr #5 align 2 {
  %2 = getelementptr inbounds nuw i8, ptr %0, i64 16
  %3 = load ptr, ptr %2, align 8
  %4 = icmp eq ptr %3, null
  br i1 %4, label %_ZNKSt14default_deleteIN10open_spiel12_GLOBAL__N_117NoPrivateObserverEEclEPS2_.exit, label %5

5:                                                ; preds = %1
  %6 = load ptr, ptr %3, align 8
  %7 = getelementptr inbounds nuw i8, ptr %6, i64 24
  %8 = load ptr, ptr %7, align 8
  tail call void %8(ptr noundef nonnull align 8 dereferenceable(10) %3) #26
  br label %_ZNKSt14default_deleteIN10open_spiel12_GLOBAL__N_117NoPrivateObserverEEclEPS2_.exit

_ZNKSt14default_deleteIN10open_spiel12_GLOBAL__N_117NoPrivateObserverEEclEPS2_.exit: ; preds = %1, %5
  ret void
}